target datalayout = "e-m:e-p270:32:32-p271:32:32-p272:64:64-i64:64-i128:128-f80:128-n8:16:32:64-S128"
target triple = "x86_64-pc-linux-gnu"

@.str.1 = private unnamed_addr constant [32 x i8] c"../openssl/test/quic_cfq_test.c\00", align 1
@ref_buf = internal constant [10 x i8] c"\10\11\12\13\14\15\16\17\18\19", align 1
@.str.4 = private unnamed_addr constant [35 x i8] c"ossl_quic_cfq_item_get_state(item)\00", align 1
@.str.5 = private unnamed_addr constant [19 x i8] c"QUIC_CFQ_STATE_NEW\00", align 1
@.str.6 = private unnamed_addr constant [38 x i8] c"ossl_quic_cfq_item_get_pn_space(item)\00", align 1
@.str.10 = private unnamed_addr constant [37 x i8] c"ossl_quic_cfq_item_get_encoded(item)\00", align 1
@items = internal global [3 x [10 x ptr]] zeroinitializer, align 16
@.str.15 = private unnamed_addr constant [5 x i8] c"item\00", align 1
@.str.16 = private unnamed_addr constant [30 x i8] c"ref_buf + expect[pn_space][i]\00", align 1
@.str.17 = private unnamed_addr constant [9 x i8] c"pn_space\00", align 1

; Function Attrs: nounwind uwtable
define internal i32 @check(ptr noundef %0) #0 {
  %2 = alloca ptr, align 8
  %3 = alloca i32, align 4
  %4 = alloca ptr, align 8
  %5 = alloca i64, align 8
  %6 = alloca i32, align 4
  store ptr %0, ptr %2, align 8, !tbaa !8
  call void @llvm.lifetime.start.p0(i64 4, ptr %3) #3
  store i32 0, ptr %3, align 4, !tbaa !4
  call void @llvm.lifetime.start.p0(i64 8, ptr %4) #3
  call void @llvm.lifetime.start.p0(i64 8, ptr %5) #3
  call void @llvm.lifetime.start.p0(i64 4, ptr %6) #3
  store i32 0, ptr %6, align 4, !tbaa !4
  br label %7

7:                                                ; preds = %71, %1
  %8 = load i32, ptr %6, align 4, !tbaa !4
  %9 = icmp ult i32 %8, 3
  br i1 %9, label %10, label %74

10:                                               ; preds = %7
  store i64 0, ptr %5, align 8, !tbaa !13
  %11 = load ptr, ptr %2, align 8, !tbaa !8
  %12 = load i32, ptr %6, align 4, !tbaa !4
  %13 = call ptr @ossl_quic_cfq_get_priority_head(ptr noundef %11, i32 noundef %12)
  store ptr %13, ptr %4, align 8, !tbaa !15
  br label %14

14:                                               ; preds = %64, %10
  %15 = load i32, ptr %6, align 4, !tbaa !4
  %16 = zext i32 %15 to i64
  %17 = getelementptr inbounds nuw [3 x [11 x i32]], ptr @expect, i64 0, i64 %16
  %18 = load i64, ptr %5, align 8, !tbaa !13
  %19 = getelementptr inbounds nuw [11 x i32], ptr %17, i64 0, i64 %18
  %20 = load i32, ptr %19, align 4, !tbaa !4
  %21 = icmp eq i32 %20, -1
  br i1 %21, label %22, label %28

22:                                               ; preds = %14
  %23 = load ptr, ptr %4, align 8, !tbaa !15
  %24 = call i32 @test_ptr_null(ptr noundef @.str.1, i32 noundef 78, ptr noundef @.str.15, ptr noundef %23)
  %25 = icmp ne i32 %24, 0
  br i1 %25, label %27, label %26

26:                                               ; preds = %22
  br label %75

27:                                               ; preds = %22
  br label %70

28:                                               ; preds = %14
  %29 = load ptr, ptr %4, align 8, !tbaa !15
  %30 = load i32, ptr %6, align 4, !tbaa !4
  %31 = zext i32 %30 to i64
  %32 = getelementptr inbounds nuw [3 x [10 x ptr]], ptr @items, i64 0, i64 %31
  %33 = load i64, ptr %5, align 8, !tbaa !13
  %34 = getelementptr inbounds nuw [10 x ptr], ptr %32, i64 0, i64 %33
  store ptr %29, ptr %34, align 8, !tbaa !15
  %35 = load ptr, ptr %4, align 8, !tbaa !15
  %36 = call i32 @test_ptr(ptr noundef @.str.1, i32 noundef 86, ptr noundef @.str.15, ptr noundef %35)
  %37 = icmp ne i32 %36, 0
  br i1 %37, label %38, label %62

38:                                               ; preds = %28
  %39 = load ptr, ptr %4, align 8, !tbaa !15
  %40 = call ptr @ossl_quic_cfq_item_get_encoded(ptr noundef %39)
  %41 = load i32, ptr %6, align 4, !tbaa !4
  %42 = zext i32 %41 to i64
  %43 = getelementptr inbounds nuw [3 x [11 x i32]], ptr @expect, i64 0, i64 %42
  %44 = load i64, ptr %5, align 8, !tbaa !13
  %45 = getelementptr inbounds nuw [11 x i32], ptr %43, i64 0, i64 %44
  %46 = load i32, ptr %45, align 4, !tbaa !4
  %47 = zext i32 %46 to i64
  %48 = getelementptr inbounds nuw i8, ptr @ref_buf, i64 %47
  %49 = call i32 @test_ptr_eq(ptr noundef @.str.1, i32 noundef 88, ptr noundef @.str.10, ptr noundef @.str.16, ptr noundef %40, ptr noundef %48)
  %50 = icmp ne i32 %49, 0
  br i1 %50, label %51, label %62

51:                                               ; preds = %38
  %52 = load ptr, ptr %4, align 8, !tbaa !15
  %53 = call i32 @ossl_quic_cfq_item_get_pn_space(ptr noundef %52)
  %54 = load i32, ptr %6, align 4, !tbaa !4
  %55 = call i32 @test_int_eq(ptr noundef @.str.1, i32 noundef 89, ptr noundef @.str.6, ptr noundef @.str.17, i32 noundef %53, i32 noundef %54)
  %56 = icmp ne i32 %55, 0
  br i1 %56, label %57, label %62

57:                                               ; preds = %51
  %58 = load ptr, ptr %4, align 8, !tbaa !15
  %59 = call i32 @ossl_quic_cfq_item_get_state(ptr noundef %58)
  %60 = call i32 @test_int_eq(ptr noundef @.str.1, i32 noundef 91, ptr noundef @.str.4, ptr noundef @.str.5, i32 noundef %59, i32 noundef 0)
  %61 = icmp ne i32 %60, 0
  br i1 %61, label %63, label %62

62:                                               ; preds = %57, %51, %38, %28
  br label %75

63:                                               ; preds = %57
  br label %64

64:                                               ; preds = %63
  %65 = load i64, ptr %5, align 8, !tbaa !13
  %66 = add i64 %65, 1
  store i64 %66, ptr %5, align 8, !tbaa !13
  %67 = load ptr, ptr %4, align 8, !tbaa !15
  %68 = load i32, ptr %6, align 4, !tbaa !4
  %69 = call ptr @ossl_quic_cfq_item_get_priority_next(ptr noundef %67, i32 noundef %68)
  store ptr %69, ptr %4, align 8, !tbaa !15
  br label %14

70:                                               ; preds = %27
  br label %71

71:                                               ; preds = %70
  %72 = load i32, ptr %6, align 4, !tbaa !4
  %73 = add i32 %72, 1
  store i32 %73, ptr %6, align 4, !tbaa !4
  br label %7, !llvm.loop !28

74:                                               ; preds = %7
  store i32 1, ptr %3, align 4, !tbaa !4
  br label %75

75:                                               ; preds = %74, %62, %26
  %76 = load i32, ptr %3, align 4, !tbaa !4
  call void @llvm.lifetime.end.p0(i64 4, ptr %6) #3
  call void @llvm.lifetime.end.p0(i64 8, ptr %5) #3
  call void @llvm.lifetime.end.p0(i64 8, ptr %4) #3
  call void @llvm.lifetime.end.p0(i64 4, ptr %3) #3
  ret i32 %76
}