; Function Attrs: nounwind uwtable
define internal fastcc range(i32 0, 2) i32 @check(ptr noundef %0) unnamed_addr #0 {
  br label %3

2:                                                ; preds = %._crit_edge
  %indvars.iv.next = add nuw nsw i64 %indvars.iv, 1
  %exitcond.not = icmp eq i64 %indvars.iv.next, 3
  br i1 %exitcond.not, label %.loopexit, label %3, !llvm.loop !23

3:                                                ; preds = %1, %2
  %indvars.iv = phi i64 [ 0, %1 ], [ %indvars.iv.next, %2 ]
  %4 = trunc nuw nsw i64 %indvars.iv to i32
  %5 = tail call ptr @ossl_quic_cfq_get_priority_head(ptr noundef %0, i32 noundef %4) #3
  %6 = getelementptr inbounds nuw [3 x [11 x i32]], ptr @expect, i64 0, i64 %indvars.iv, i64 0
  %7 = load i32, ptr %6, align 4, !tbaa !6
  %8 = icmp eq i32 %7, -1
  br i1 %8, label %._crit_edge, label %.lr.ph

._crit_edge:                                      ; preds = %24, %3
  %.021.lcssa = phi ptr [ %5, %3 ], [ %26, %24 ]
  %9 = tail call i32 @test_ptr_null(ptr noundef nonnull @.str.1, i32 noundef 78, ptr noundef nonnull @.str.15, ptr noundef %.021.lcssa) #3
  %.not26 = icmp eq i32 %9, 0
  br i1 %.not26, label %.loopexit, label %2

.lr.ph:                                           ; preds = %3, %24
  %10 = phi i32 [ %28, %24 ], [ %7, %3 ]
  %.02030 = phi i64 [ %25, %24 ], [ 0, %3 ]
  %.02129 = phi ptr [ %26, %24 ], [ %5, %3 ]
  %11 = getelementptr inbounds nuw [3 x [10 x ptr]], ptr @items, i64 0, i64 %indvars.iv, i64 %.02030
  store ptr %.02129, ptr %11, align 8, !tbaa !15
  %12 = tail call i32 @test_ptr(ptr noundef nonnull @.str.1, i32 noundef 86, ptr noundef nonnull @.str.15, ptr noundef %.02129) #3
  %.not = icmp eq i32 %12, 0
  br i1 %.not, label %.loopexit, label %13

13:                                               ; preds = %.lr.ph
  %14 = tail call ptr @ossl_quic_cfq_item_get_encoded(ptr noundef %.02129) #3
  %15 = zext i32 %10 to i64
  %16 = getelementptr inbounds nuw i8, ptr @ref_buf, i64 %15
  %17 = tail call i32 @test_ptr_eq(ptr noundef nonnull @.str.1, i32 noundef 88, ptr noundef nonnull @.str.10, ptr noundef nonnull @.str.16, ptr noundef %14, ptr noundef nonnull %16) #3
  %.not23 = icmp eq i32 %17, 0
  br i1 %.not23, label %.loopexit, label %18

18:                                               ; preds = %13
  %19 = tail call i32 @ossl_quic_cfq_item_get_pn_space(ptr noundef %.02129) #3
  %20 = tail call i32 @test_int_eq(ptr noundef nonnull @.str.1, i32 noundef 89, ptr noundef nonnull @.str.6, ptr noundef nonnull @.str.17, i32 noundef %19, i32 noundef %4) #3
  %.not24 = icmp eq i32 %20, 0
  br i1 %.not24, label %.loopexit, label %21

21:                                               ; preds = %18
  %22 = tail call i32 @ossl_quic_cfq_item_get_state(ptr noundef %.02129) #3
  %23 = tail call i32 @test_int_eq(ptr noundef nonnull @.str.1, i32 noundef 91, ptr noundef nonnull @.str.4, ptr noundef nonnull @.str.5, i32 noundef %22, i32 noundef 0) #3
  %.not25 = icmp eq i32 %23, 0
  br i1 %.not25, label %.loopexit, label %24

24:                                               ; preds = %21
  %25 = add i64 %.02030, 1
  %26 = tail call ptr @ossl_quic_cfq_item_get_priority_next(ptr noundef %.02129, i32 noundef %4) #3
  %27 = getelementptr inbounds nuw [3 x [11 x i32]], ptr @expect, i64 0, i64 %indvars.iv, i64 %25
  %28 = load i32, ptr %27, align 4, !tbaa !6
  %29 = icmp eq i32 %28, -1
  br i1 %29, label %._crit_edge, label %.lr.ph

.loopexit:                                        ; preds = %2, %._crit_edge, %.lr.ph, %13, %18, %21
  %.022 = phi i32 [ 0, %21 ], [ 0, %18 ], [ 0, %13 ], [ 0, %.lr.ph ], [ 1, %2 ], [ 0, %._crit_edge ]
  ret i32 %.022
}